target datalayout = "e-m:e-p270:32:32-p271:32:32-p272:64:64-i64:64-i128:128-f80:128-n8:16:32:64-S128"
target triple = "x86_64-pc-linux-gnu"

%"class.icu_77::UObject" = type { ptr }
%"class.icu_77::FieldPosition" = type <{ %"class.icu_77::UObject", i32, i32, i32, [4 x i8] }>

@_ZTVN6icu_777UObjectE = available_externally unnamed_addr constant { [5 x ptr] } { [5 x ptr] [ptr null, ptr @_ZTIN6icu_777UObjectE, ptr @_ZN6icu_777UObjectD1Ev, ptr @_ZN6icu_777UObjectD0Ev, ptr @_ZNK6icu_777UObject17getDynamicClassIDEv] }, align 8
@_ZTVN6icu_7713FieldPositionE = available_externally unnamed_addr constant { [5 x ptr] } { [5 x ptr] [ptr null, ptr @_ZTIN6icu_7713FieldPositionE, ptr @_ZN6icu_7713FieldPositionD1Ev, ptr @_ZN6icu_7713FieldPositionD0Ev, ptr @_ZNK6icu_7713FieldPosition17getDynamicClassIDEv] }, align 8

; Function Attrs: inlinehint mustprogress nounwind uwtable
define linkonce_odr void @_ZN6icu_777UObjectC2Ev(ptr noundef nonnull align 8 dereferenceable(8) %0) unnamed_addr #2 comdat align 2 {
  %2 = alloca ptr, align 8
  store ptr %0, ptr %2, align 8, !tbaa !79
  %3 = load ptr, ptr %2, align 8
  store ptr getelementptr inbounds inrange(-16, 24) ({ [5 x ptr] }, ptr @_ZTVN6icu_777UObjectE, i32 0, i32 0, i32 2), ptr %3, align 8, !tbaa !30
  ret void
}

; Function Attrs: mustprogress nounwind uwtable
define linkonce_odr void @_ZN6icu_7713FieldPositionC2Ei(ptr noundef nonnull align 8 dereferenceable(20) %0, i32 noundef %1) unnamed_addr #0 comdat align 2 {
  %3 = alloca ptr, align 8
  %4 = alloca i32, align 4
  store ptr %0, ptr %3, align 8, !tbaa !70
  store i32 %1, ptr %4, align 4, !tbaa !14
  %5 = load ptr, ptr %3, align 8
  %6 = getelementptr inbounds i8, ptr %5, i64 0
  call void @llvm.memset.p0.i64(ptr align 8 %6, i8 0, i64 8, i1 false)
  call void @_ZN6icu_777UObjectC2Ev(ptr noundef nonnull align 8 dereferenceable(8) %5) #15
  store ptr getelementptr inbounds inrange(-16, 24) ({ [5 x ptr] }, ptr @_ZTVN6icu_7713FieldPositionE, i32 0, i32 0, i32 2), ptr %5, align 8, !tbaa !30
  %7 = getelementptr inbounds nuw %"class.icu_77::FieldPosition", ptr %5, i32 0, i32 1
  %8 = load i32, ptr %4, align 4, !tbaa !14
  store i32 %8, ptr %7, align 8, !tbaa !100
  %9 = getelementptr inbounds nuw %"class.icu_77::FieldPosition", ptr %5, i32 0, i32 2
  store i32 0, ptr %9, align 4, !tbaa !102
  %10 = getelementptr inbounds nuw %"class.icu_77::FieldPosition", ptr %5, i32 0, i32 3
  store i32 0, ptr %10, align 8, !tbaa !103
  ret void
}

; Function Attrs: mustprogress uwtable
define noundef nonnull align 8 dereferenceable(64) ptr @_ZNK6icu_7712NumberFormat6formatElRNS_13UnicodeStringE(ptr noundef nonnull align 8 dereferenceable(60) %0, i64 noundef %1, ptr noundef nonnull align 8 dereferenceable(64) %2) #1 align 2 personality ptr @__gxx_personality_v0 {
  %4 = alloca ptr, align 8
  %5 = alloca i64, align 8
  %6 = alloca ptr, align 8
  %7 = alloca %"class.icu_77::FieldPosition", align 8
  %8 = alloca ptr, align 8
  %9 = alloca i32, align 4
  store ptr %0, ptr %4, align 8, !tbaa !40
  store i64 %1, ptr %5, align 8, !tbaa !18
  store ptr %2, ptr %6, align 8, !tbaa !38
  %10 = load ptr, ptr %4, align 8
  call void @llvm.lifetime.start.p0(i64 24, ptr %7) #15
  call void @_ZN6icu_7713FieldPositionC2Ei(ptr noundef nonnull align 8 dereferenceable(20) %7, i32 noundef -1)
  %11 = load i64, ptr %5, align 8, !tbaa !18
  %12 = load ptr, ptr %6, align 8, !tbaa !38
  %13 = load ptr, ptr %10, align 8, !tbaa !30
  %14 = getelementptr inbounds ptr, ptr %13, i64 14
  %15 = load ptr, ptr %14, align 8
  %16 = invoke noundef nonnull align 8 dereferenceable(64) ptr %15(ptr noundef nonnull align 8 dereferenceable(60) %10, i64 noundef %11, ptr noundef nonnull align 8 dereferenceable(64) %12, ptr noundef nonnull align 8 dereferenceable(20) %7)
          to label %17 unwind label %18

17:                                               ; preds = %3
  call void @_ZN6icu_7713FieldPositionD1Ev(ptr noundef nonnull align 8 dereferenceable(20) %7) #15
  call void @llvm.lifetime.end.p0(i64 24, ptr %7) #15
  ret ptr %16

18:                                               ; preds = %3
  %19 = landingpad { ptr, i32 }
          cleanup
  %20 = extractvalue { ptr, i32 } %19, 0
  store ptr %20, ptr %8, align 8
  %21 = extractvalue { ptr, i32 } %19, 1
  store i32 %21, ptr %9, align 4
  call void @_ZN6icu_7713FieldPositionD1Ev(ptr noundef nonnull align 8 dereferenceable(20) %7) #15
  call void @llvm.lifetime.end.p0(i64 24, ptr %7) #15
  br label %22

22:                                               ; preds = %18
  %23 = load ptr, ptr %8, align 8
  %24 = load i32, ptr %9, align 4
  %25 = insertvalue { ptr, i32 } poison, ptr %23, 0
  %26 = insertvalue { ptr, i32 } %25, i32 %24, 1
  resume { ptr, i32 } %26
}