; Function Attrs: mustprogress uwtable
define noundef nonnull align 8 dereferenceable(64) ptr @_ZNK6icu_7712NumberFormat6formatElRNS_13UnicodeStringE(ptr noundef nonnull align 8 dereferenceable(60) %0, i64 noundef %1, ptr noundef nonnull align 8 dereferenceable(64) %2) local_unnamed_addr #1 align 2 personality ptr @__gxx_personality_v0 {
  %4 = alloca %"class.icu_77::FieldPosition", align 8
  call void @llvm.lifetime.start.p0(i64 24, ptr nonnull %4) #22
  store ptr getelementptr inbounds nuw inrange(-16, 24) (i8, ptr @_ZTVN6icu_7713FieldPositionE, i64 16), ptr %4, align 8, !tbaa !15
  %5 = getelementptr inbounds nuw i8, ptr %4, i64 8
  store i32 -1, ptr %5, align 8, !tbaa !53
  %6 = getelementptr inbounds nuw i8, ptr %4, i64 12
  store i32 0, ptr %6, align 4, !tbaa !55
  %7 = getelementptr inbounds nuw i8, ptr %4, i64 16
  store i32 0, ptr %7, align 8, !tbaa !56
  %8 = load ptr, ptr %0, align 8, !tbaa !15
  %9 = getelementptr inbounds nuw i8, ptr %8, i64 112
  %10 = load ptr, ptr %9, align 8
  %11 = invoke noundef nonnull align 8 dereferenceable(64) ptr %10(ptr noundef nonnull align 8 dereferenceable(60) %0, i64 noundef %1, ptr noundef nonnull align 8 dereferenceable(64) %2, ptr noundef nonnull align 8 dereferenceable(20) %4)
          to label %12 unwind label %13

12:                                               ; preds = %3
  call void @_ZN6icu_7713FieldPositionD1Ev(ptr noundef nonnull align 8 dereferenceable(20) %4) #22
  call void @llvm.lifetime.end.p0(i64 24, ptr nonnull %4) #22
  ret ptr %11

13:                                               ; preds = %3
  %14 = landingpad { ptr, i32 }
          cleanup
  call void @_ZN6icu_7713FieldPositionD1Ev(ptr noundef nonnull align 8 dereferenceable(20) %4) #22
  call void @llvm.lifetime.end.p0(i64 24, ptr nonnull %4) #22
  resume { ptr, i32 } %14
}